target datalayout = "e-m:e-p270:32:32-p271:32:32-p272:64:64-i64:64-i128:128-f80:128-n8:16:32:64-S128"
target triple = "x86_64-pc-linux-gnu"

%class.Dependencies = type { ptr, [9 x ptr], i8, [9 x ptr], ptr, ptr, ptr, i64 }
%class.GrowableArrayView = type { %class.GrowableArrayBase, ptr }
%class.GrowableArrayBase = type { i32, i32 }
%"class.Dependencies::DepValue" = type { i32 }
%class.GrowableArrayView.5 = type { %class.GrowableArrayBase, ptr }

; Function Attrs: mustprogress nounwind uwtable
define linkonce_odr hidden noundef i32 @_ZN21CountLeadingZerosImplIiLm4EE4doitEi(i32 noundef %0) #1 comdat align 2 {
  %2 = alloca i32, align 4
  store i32 %0, ptr %2, align 4
  %3 = load i32, ptr %2, align 4
  %4 = call i32 @llvm.ctlz.i32(i32 %3, i1 true)
  ret i32 %4
}

; Function Attrs: mustprogress nounwind uwtable
define linkonce_odr hidden noundef i32 @_Z19count_leading_zerosIiEjT_(i32 noundef %0) #1 comdat {
  %2 = alloca i32, align 4
  store i32 %0, ptr %2, align 4
  %3 = load i32, ptr %2, align 4
  %4 = call noundef i32 @_ZN21CountLeadingZerosImplIiLm4EE4doitEi(i32 noundef %3)
  ret i32 %4
}

; Function Attrs: mustprogress nounwind uwtable
define linkonce_odr hidden noundef i32 @_Z5log2iIiTnNSt9enable_ifIXcvbsr3std11is_integralIT_EE5valueEiE4typeELi0EEiS1_(i32 noundef %0) #1 comdat {
  %2 = alloca i32, align 4
  %3 = alloca i32, align 4
  store i32 %0, ptr %2, align 4
  store i32 32, ptr %3, align 4
  %4 = load i32, ptr %2, align 4
  %5 = call noundef i32 @_Z19count_leading_zerosIiEjT_(i32 noundef %4)
  %6 = sub i32 32, %5
  %7 = sub i32 %6, 1
  ret i32 %7
}

; Function Attrs: mustprogress nounwind uwtable
define linkonce_odr hidden noundef zeroext i1 @_Z13is_power_of_2IiTnNSt9enable_ifIXcvbsr3std11is_integralIT_EE5valueEiE4typeELi0EEbS1_(i32 noundef %0) #1 comdat {
  %2 = alloca i32, align 4
  store i32 %0, ptr %2, align 4
  %3 = load i32, ptr %2, align 4
  %4 = icmp sgt i32 %3, 0
  br i1 %4, label %5, label %11

5:                                                ; preds = %1
  %6 = load i32, ptr %2, align 4
  %7 = load i32, ptr %2, align 4
  %8 = sub nsw i32 %7, 1
  %9 = and i32 %6, %8
  %10 = icmp eq i32 %9, 0
  br label %11

11:                                               ; preds = %5, %1
  %12 = phi i1 [ false, %1 ], [ %10, %5 ]
  ret i1 %12
}

; Function Attrs: mustprogress nounwind uwtable
define linkonce_odr hidden noundef i32 @_Z19round_up_power_of_2IiTnNSt9enable_ifIXcvbsr3std11is_integralIT_EE5valueEiE4typeELi0EES1_S1_(i32 noundef %0) #1 comdat {
  %2 = alloca i32, align 4
  %3 = alloca i32, align 4
  store i32 %0, ptr %3, align 4
  %4 = load i32, ptr %3, align 4
  %5 = call noundef zeroext i1 @_Z13is_power_of_2IiTnNSt9enable_ifIXcvbsr3std11is_integralIT_EE5valueEiE4typeELi0EEbS1_(i32 noundef %4)
  br i1 %5, label %6, label %8

6:                                                ; preds = %1
  %7 = load i32, ptr %3, align 4
  store i32 %7, ptr %2, align 4
  br label %13

8:                                                ; preds = %1
  %9 = load i32, ptr %3, align 4
  %10 = call noundef i32 @_Z5log2iIiTnNSt9enable_ifIXcvbsr3std11is_integralIT_EE5valueEiE4typeELi0EEiS1_(i32 noundef %9)
  %11 = add nsw i32 %10, 1
  %12 = shl i32 1, %11
  store i32 %12, ptr %2, align 4
  br label %13

13:                                               ; preds = %8, %6
  %14 = load i32, ptr %2, align 4
  ret i32 %14
}

; Function Attrs: mustprogress nounwind uwtable
define linkonce_odr hidden noundef i32 @_Z15next_power_of_2IiTnNSt9enable_ifIXcvbsr3std11is_integralIT_EE5valueEiE4typeELi0EES1_S1_(i32 noundef %0) #1 comdat {
  %2 = alloca i32, align 4
  store i32 %0, ptr %2, align 4
  %3 = load i32, ptr %2, align 4
  %4 = add nsw i32 %3, 1
  %5 = call noundef i32 @_Z19round_up_power_of_2IiTnNSt9enable_ifIXcvbsr3std11is_integralIT_EE5valueEiE4typeELi0EES1_S1_(i32 noundef %4)
  ret i32 %5
}

; Function Attrs: mustprogress nounwind uwtable
define linkonce_odr hidden void @_ZN26GrowableArrayWithAllocatorIi13GrowableArrayIiEE4growEi(ptr noundef nonnull align 8 dereferenceable(16) %0, i32 noundef %1) #1 comdat align 2 {
  %3 = alloca ptr, align 8
  %4 = alloca i32, align 4
  store ptr %0, ptr %3, align 8
  store i32 %1, ptr %4, align 4
  %5 = load ptr, ptr %3, align 8
  %6 = load i32, ptr %4, align 4
  %7 = call noundef i32 @_Z15next_power_of_2IiTnNSt9enable_ifIXcvbsr3std11is_integralIT_EE5valueEiE4typeELi0EES1_S1_(i32 noundef %6)
  call void @_ZN26GrowableArrayWithAllocatorIi13GrowableArrayIiEE9expand_toEi(ptr noundef nonnull align 8 dereferenceable(16) %5, i32 noundef %7)
  ret void
}

; Function Attrs: mustprogress nounwind uwtable
define linkonce_odr hidden void @_ZN26GrowableArrayWithAllocatorIN12Dependencies8DepValueE13GrowableArrayIS1_EE4growEi(ptr noundef nonnull align 8 dereferenceable(16) %0, i32 noundef %1) #1 comdat align 2 {
  %3 = alloca ptr, align 8
  %4 = alloca i32, align 4
  store ptr %0, ptr %3, align 8
  store i32 %1, ptr %4, align 4
  %5 = load ptr, ptr %3, align 8
  %6 = load i32, ptr %4, align 4
  %7 = call noundef i32 @_Z15next_power_of_2IiTnNSt9enable_ifIXcvbsr3std11is_integralIT_EE5valueEiE4typeELi0EES1_S1_(i32 noundef %6)
  call void @_ZN26GrowableArrayWithAllocatorIN12Dependencies8DepValueE13GrowableArrayIS1_EE9expand_toEi(ptr noundef nonnull align 8 dereferenceable(16) %5, i32 noundef %7)
  ret void
}

; Function Attrs: mustprogress nounwind uwtable
define linkonce_odr hidden void @_ZN17GrowableArrayViewIiE6at_putEiRKi(ptr noundef nonnull align 8 dereferenceable(16) %0, i32 noundef %1, ptr noundef nonnull align 4 dereferenceable(4) %2) #1 comdat align 2 {
  %4 = alloca ptr, align 8
  %5 = alloca i32, align 4
  %6 = alloca ptr, align 8
  store ptr %0, ptr %4, align 8
  store i32 %1, ptr %5, align 4
  store ptr %2, ptr %6, align 8
  %7 = load ptr, ptr %4, align 8
  %8 = load ptr, ptr %6, align 8
  %9 = load i32, ptr %8, align 4
  %10 = getelementptr inbounds %class.GrowableArrayView, ptr %7, i32 0, i32 1
  %11 = load ptr, ptr %10, align 8
  %12 = load i32, ptr %5, align 4
  %13 = sext i32 %12 to i64
  %14 = getelementptr inbounds i32, ptr %11, i64 %13
  store i32 %9, ptr %14, align 4
  ret void
}

; Function Attrs: mustprogress nounwind uwtable
define linkonce_odr hidden noundef nonnull align 4 dereferenceable(4) ptr @_ZN26GrowableArrayWithAllocatorIi13GrowableArrayIiEE7at_growEiRKi(ptr noundef nonnull align 8 dereferenceable(16) %0, i32 noundef %1, ptr noundef nonnull align 4 dereferenceable(4) %2) #1 comdat align 2 {
  %4 = alloca ptr, align 8
  %5 = alloca i32, align 4
  %6 = alloca ptr, align 8
  %7 = alloca i32, align 4
  store ptr %0, ptr %4, align 8
  store i32 %1, ptr %5, align 4
  store ptr %2, ptr %6, align 8
  %8 = load ptr, ptr %4, align 8
  %9 = load i32, ptr %5, align 4
  %10 = getelementptr inbounds %class.GrowableArrayBase, ptr %8, i32 0, i32 0
  %11 = load i32, ptr %10, align 8
  %12 = icmp sge i32 %9, %11
  br i1 %12, label %13, label %42

13:                                               ; preds = %3
  %14 = load i32, ptr %5, align 4
  %15 = getelementptr inbounds %class.GrowableArrayBase, ptr %8, i32 0, i32 1
  %16 = load i32, ptr %15, align 4
  %17 = icmp sge i32 %14, %16
  br i1 %17, label %18, label %20

18:                                               ; preds = %13
  %19 = load i32, ptr %5, align 4
  call void @_ZN26GrowableArrayWithAllocatorIi13GrowableArrayIiEE4growEi(ptr noundef nonnull align 8 dereferenceable(16) %8, i32 noundef %19)
  br label %20

20:                                               ; preds = %18, %13
  %21 = getelementptr inbounds %class.GrowableArrayBase, ptr %8, i32 0, i32 0
  %22 = load i32, ptr %21, align 8
  store i32 %22, ptr %7, align 4
  br label %23

23:                                               ; preds = %35, %20
  %24 = load i32, ptr %7, align 4
  %25 = load i32, ptr %5, align 4
  %26 = icmp sle i32 %24, %25
  br i1 %26, label %27, label %38

27:                                               ; preds = %23
  %28 = load ptr, ptr %6, align 8
  %29 = load i32, ptr %28, align 4
  %30 = getelementptr inbounds %class.GrowableArrayView, ptr %8, i32 0, i32 1
  %31 = load ptr, ptr %30, align 8
  %32 = load i32, ptr %7, align 4
  %33 = sext i32 %32 to i64
  %34 = getelementptr inbounds i32, ptr %31, i64 %33
  store i32 %29, ptr %34, align 4
  br label %35

35:                                               ; preds = %27
  %36 = load i32, ptr %7, align 4
  %37 = add nsw i32 %36, 1
  store i32 %37, ptr %7, align 4
  br label %23, !llvm.loop !51

38:                                               ; preds = %23
  %39 = load i32, ptr %5, align 4
  %40 = add nsw i32 %39, 1
  %41 = getelementptr inbounds %class.GrowableArrayBase, ptr %8, i32 0, i32 0
  store i32 %40, ptr %41, align 8
  br label %42

42:                                               ; preds = %38, %3
  %43 = getelementptr inbounds %class.GrowableArrayView, ptr %8, i32 0, i32 1
  %44 = load ptr, ptr %43, align 8
  %45 = load i32, ptr %5, align 4
  %46 = sext i32 %45 to i64
  %47 = getelementptr inbounds i32, ptr %44, i64 %46
  ret ptr %47
}

; Function Attrs: mustprogress nounwind uwtable
define linkonce_odr hidden noundef i32 @_ZNK12Dependencies8DepValue5indexEv(ptr noundef nonnull align 4 dereferenceable(4) %0) #1 comdat align 2 {
  %2 = alloca ptr, align 8
  store ptr %0, ptr %2, align 8
  %3 = load ptr, ptr %2, align 8
  %4 = getelementptr inbounds %"class.Dependencies::DepValue", ptr %3, i32 0, i32 0
  %5 = load i32, ptr %4, align 4
  %6 = icmp slt i32 %5, 0
  br i1 %6, label %7, label %12

7:                                                ; preds = %1
  %8 = getelementptr inbounds %"class.Dependencies::DepValue", ptr %3, i32 0, i32 0
  %9 = load i32, ptr %8, align 4
  %10 = add nsw i32 %9, 1
  %11 = sub nsw i32 0, %10
  br label %16

12:                                               ; preds = %1
  %13 = getelementptr inbounds %"class.Dependencies::DepValue", ptr %3, i32 0, i32 0
  %14 = load i32, ptr %13, align 4
  %15 = sub nsw i32 %14, 1
  br label %16

16:                                               ; preds = %12, %7
  %17 = phi i32 [ %11, %7 ], [ %15, %12 ]
  ret i32 %17
}

; Function Attrs: mustprogress nounwind uwtable
define linkonce_odr hidden noundef zeroext i1 @_ZNK12Dependencies8DepValue11is_metadataEv(ptr noundef nonnull align 4 dereferenceable(4) %0) #1 comdat align 2 {
  %2 = alloca ptr, align 8
  store ptr %0, ptr %2, align 8
  %3 = load ptr, ptr %2, align 8
  %4 = getelementptr inbounds %"class.Dependencies::DepValue", ptr %3, i32 0, i32 0
  %5 = load i32, ptr %4, align 4
  %6 = icmp sgt i32 %5, 0
  ret i1 %6
}

; Function Attrs: mustprogress nounwind uwtable
define linkonce_odr hidden noundef i32 @_ZN26GrowableArrayWithAllocatorIN12Dependencies8DepValueE13GrowableArrayIS1_EE6appendERKS1_(ptr noundef nonnull align 8 dereferenceable(16) %0, ptr noundef nonnull align 4 dereferenceable(4) %1) #1 comdat align 2 {
  %3 = alloca ptr, align 8
  %4 = alloca ptr, align 8
  %5 = alloca i32, align 4
  store ptr %0, ptr %3, align 8
  store ptr %1, ptr %4, align 8
  %6 = load ptr, ptr %3, align 8
  %7 = getelementptr inbounds %class.GrowableArrayBase, ptr %6, i32 0, i32 0
  %8 = load i32, ptr %7, align 8
  %9 = getelementptr inbounds %class.GrowableArrayBase, ptr %6, i32 0, i32 1
  %10 = load i32, ptr %9, align 4
  %11 = icmp eq i32 %8, %10
  br i1 %11, label %12, label %15

12:                                               ; preds = %2
  %13 = getelementptr inbounds %class.GrowableArrayBase, ptr %6, i32 0, i32 0
  %14 = load i32, ptr %13, align 8
  call void @_ZN26GrowableArrayWithAllocatorIN12Dependencies8DepValueE13GrowableArrayIS1_EE4growEi(ptr noundef nonnull align 8 dereferenceable(16) %6, i32 noundef %14)
  br label %15

15:                                               ; preds = %12, %2
  %16 = getelementptr inbounds %class.GrowableArrayBase, ptr %6, i32 0, i32 0
  %17 = load i32, ptr %16, align 8
  %18 = add nsw i32 %17, 1
  store i32 %18, ptr %16, align 8
  store i32 %17, ptr %5, align 4
  %19 = load ptr, ptr %4, align 8
  %20 = getelementptr inbounds %class.GrowableArrayView.5, ptr %6, i32 0, i32 1
  %21 = load ptr, ptr %20, align 8
  %22 = load i32, ptr %5, align 4
  %23 = sext i32 %22 to i64
  %24 = getelementptr inbounds %"class.Dependencies::DepValue", ptr %21, i64 %23
  call void @llvm.memcpy.p0.p0.i64(ptr align 4 %24, ptr align 4 %19, i64 4, i1 false)
  %25 = load i32, ptr %5, align 4
  ret i32 %25
}

; Function Attrs: mustprogress nounwind uwtable
define linkonce_odr hidden noundef zeroext i1 @_ZN12Dependencies13note_dep_seenEiNS_8DepValueE(ptr noundef nonnull align 8 dereferenceable(192) %0, i32 noundef %1, i32 %2) #1 comdat align 2 {
  %4 = alloca %"class.Dependencies::DepValue", align 4
  %5 = alloca ptr, align 8
  %6 = alloca i32, align 4
  %7 = alloca i32, align 4
  %8 = alloca i32, align 4
  %9 = alloca i32, align 4
  %10 = alloca i32, align 4
  %11 = getelementptr inbounds %"class.Dependencies::DepValue", ptr %4, i32 0, i32 0
  store i32 %2, ptr %11, align 4
  store ptr %0, ptr %5, align 8
  store i32 %1, ptr %6, align 4
  %12 = load ptr, ptr %5, align 8
  %13 = call noundef zeroext i1 @_ZNK12Dependencies8DepValue11is_metadataEv(ptr noundef nonnull align 4 dereferenceable(4) %4)
  br i1 %13, label %14, label %17

14:                                               ; preds = %3
  %15 = call noundef i32 @_ZNK12Dependencies8DepValue5indexEv(ptr noundef nonnull align 4 dereferenceable(4) %4)
  %16 = mul nsw i32 %15, 2
  br label %21

17:                                               ; preds = %3
  %18 = call noundef i32 @_ZNK12Dependencies8DepValue5indexEv(ptr noundef nonnull align 4 dereferenceable(4) %4)
  %19 = mul nsw i32 %18, 2
  %20 = add nsw i32 %19, 1
  br label %21

21:                                               ; preds = %17, %14
  %22 = phi i32 [ %16, %14 ], [ %20, %17 ]
  store i32 %22, ptr %7, align 4
  %23 = getelementptr inbounds %class.Dependencies, ptr %12, i32 0, i32 0
  %24 = load ptr, ptr %23, align 8
  %25 = load i32, ptr %7, align 4
  store i32 0, ptr %9, align 4
  %26 = call noundef nonnull align 4 dereferenceable(4) ptr @_ZN26GrowableArrayWithAllocatorIi13GrowableArrayIiEE7at_growEiRKi(ptr noundef nonnull align 8 dereferenceable(16) %24, i32 noundef %25, ptr noundef nonnull align 4 dereferenceable(4) %9)
  %27 = load i32, ptr %26, align 4
  store i32 %27, ptr %8, align 4
  %28 = getelementptr inbounds %class.Dependencies, ptr %12, i32 0, i32 0
  %29 = load ptr, ptr %28, align 8
  %30 = load i32, ptr %7, align 4
  %31 = load i32, ptr %8, align 4
  %32 = load i32, ptr %6, align 4
  %33 = shl i32 1, %32
  %34 = or i32 %31, %33
  store i32 %34, ptr %10, align 4
  call void @_ZN17GrowableArrayViewIiE6at_putEiRKi(ptr noundef nonnull align 8 dereferenceable(16) %29, i32 noundef %30, ptr noundef nonnull align 4 dereferenceable(4) %10)
  %35 = load i32, ptr %8, align 4
  %36 = load i32, ptr %6, align 4
  %37 = shl i32 1, %36
  %38 = and i32 %35, %37
  %39 = icmp ne i32 %38, 0
  ret i1 %39
}

; Function Attrs: mustprogress nounwind uwtable
define hidden void @_ZN12Dependencies15assert_common_1ENS_7DepTypeENS_8DepValueE(ptr noundef nonnull align 8 dereferenceable(192) %0, i32 noundef %1, i32 %2) #1 align 2 {
  %4 = alloca %"class.Dependencies::DepValue", align 4
  %5 = alloca ptr, align 8
  %6 = alloca i32, align 4
  %7 = alloca ptr, align 8
  %8 = alloca %"class.Dependencies::DepValue", align 4
  %9 = getelementptr inbounds %"class.Dependencies::DepValue", ptr %4, i32 0, i32 0
  store i32 %2, ptr %9, align 4
  store ptr %0, ptr %5, align 8
  store i32 %1, ptr %6, align 4
  %10 = load ptr, ptr %5, align 8
  %11 = getelementptr inbounds %class.Dependencies, ptr %10, i32 0, i32 3
  %12 = load i32, ptr %6, align 4
  %13 = zext i32 %12 to i64
  %14 = getelementptr inbounds [9 x ptr], ptr %11, i64 0, i64 %13
  %15 = load ptr, ptr %14, align 8
  store ptr %15, ptr %7, align 8
  %16 = load i32, ptr %6, align 4
  call void @llvm.memcpy.p0.p0.i64(ptr align 4 %8, ptr align 4 %4, i64 4, i1 false)
  %17 = getelementptr inbounds %"class.Dependencies::DepValue", ptr %8, i32 0, i32 0
  %18 = load i32, ptr %17, align 4
  %19 = call noundef zeroext i1 @_ZN12Dependencies13note_dep_seenEiNS_8DepValueE(ptr noundef nonnull align 8 dereferenceable(192) %10, i32 noundef %16, i32 %18)
  br i1 %19, label %20, label %21

20:                                               ; preds = %3
  br label %24

21:                                               ; preds = %3
  %22 = load ptr, ptr %7, align 8
  %23 = call noundef i32 @_ZN26GrowableArrayWithAllocatorIN12Dependencies8DepValueE13GrowableArrayIS1_EE6appendERKS1_(ptr noundef nonnull align 8 dereferenceable(16) %22, ptr noundef nonnull align 4 dereferenceable(4) %4)
  br label %24

24:                                               ; preds = %21, %20
  ret void
}