; Function Attrs: mustprogress nounwind uwtable
define hidden void @_ZN12Dependencies15assert_common_1ENS_7DepTypeENS_8DepValueE(ptr nocapture noundef nonnull readonly align 8 dereferenceable(192) %0, i32 noundef %1, i32 %2) local_unnamed_addr #0 align 2 {
  %4 = getelementptr inbounds i8, ptr %0, i64 88
  %5 = zext i32 %1 to i64
  %6 = getelementptr inbounds [9 x ptr], ptr %4, i64 0, i64 %5
  %7 = load ptr, ptr %6, align 8
  %8 = icmp sgt i32 %2, 0
  br i1 %8, label %9, label %12

9:                                                ; preds = %3
  %10 = shl nuw i32 %2, 1
  %11 = add i32 %10, -2
  br label %16

12:                                               ; preds = %3
  %13 = xor i32 %2, -1
  %14 = shl nsw i32 %13, 1
  %15 = or disjoint i32 %14, 1
  br label %16

16:                                               ; preds = %12, %9
  %17 = phi i32 [ %11, %9 ], [ %15, %12 ]
  %18 = load ptr, ptr %0, align 8
  %19 = load i32, ptr %18, align 8
  %.not.i.i = icmp sgt i32 %19, %17
  br i1 %.not.i.i, label %_ZN12Dependencies13note_dep_seenEiNS_8DepValueE.exit, label %20

20:                                               ; preds = %16
  %21 = getelementptr inbounds i8, ptr %18, i64 4
  %22 = load i32, ptr %21, align 4
  %.not11.i.i = icmp sgt i32 %22, %17
  br i1 %.not11.i.i, label %33, label %23

23:                                               ; preds = %20
  %24 = add nsw i32 %17, 1
  %25 = icmp sgt i32 %17, -1
  %26 = xor i32 %17, -2147483648
  %27 = and i32 %26, %24
  %28 = icmp eq i32 %27, 0
  %29 = and i1 %25, %28
  %30 = tail call range(i32 0, 33) i32 @llvm.ctlz.i32(i32 %24, i1 true)
  %31 = sub nuw nsw i32 32, %30
  %32 = shl nuw i32 1, %31
  %.0.i.i.i.i.i = select i1 %29, i32 %24, i32 %32
  tail call void @_ZN26GrowableArrayWithAllocatorIi13GrowableArrayIiEE9expand_toEi(ptr noundef nonnull align 8 dereferenceable(16) %18, i32 noundef %.0.i.i.i.i.i)
  %.pre.i.i = load i32, ptr %18, align 8
  br label %33

33:                                               ; preds = %23, %20
  %34 = phi i32 [ %.pre.i.i, %23 ], [ %19, %20 ]
  %.not1213.i.i = icmp sgt i32 %34, %17
  br i1 %.not1213.i.i, label %.._crit_edge_crit_edge.i.i, label %.lr.ph.i.i

.._crit_edge_crit_edge.i.i:                       ; preds = %33
  %.pre17.i.i = add nsw i32 %17, 1
  br label %._crit_edge.i.i

.lr.ph.i.i:                                       ; preds = %33
  %35 = getelementptr inbounds i8, ptr %18, i64 8
  %36 = sext i32 %34 to i64
  %37 = add i32 %17, 1
  br label %38

38:                                               ; preds = %38, %.lr.ph.i.i
  %indvars.iv.i.i = phi i64 [ %36, %.lr.ph.i.i ], [ %indvars.iv.next.i.i, %38 ]
  %39 = load ptr, ptr %35, align 8
  %40 = getelementptr inbounds i32, ptr %39, i64 %indvars.iv.i.i
  store i32 0, ptr %40, align 4
  %indvars.iv.next.i.i = add nsw i64 %indvars.iv.i.i, 1
  %lftr.wideiv.i.i = trunc i64 %indvars.iv.next.i.i to i32
  %exitcond.not.i.i = icmp eq i32 %37, %lftr.wideiv.i.i
  br i1 %exitcond.not.i.i, label %._crit_edge.i.i, label %38, !llvm.loop !8

._crit_edge.i.i:                                  ; preds = %38, %.._crit_edge_crit_edge.i.i
  %.pre-phi.i.i = phi i32 [ %.pre17.i.i, %.._crit_edge_crit_edge.i.i ], [ %37, %38 ]
  store i32 %.pre-phi.i.i, ptr %18, align 8
  %.pre.i = load ptr, ptr %0, align 8
  br label %_ZN12Dependencies13note_dep_seenEiNS_8DepValueE.exit

_ZN12Dependencies13note_dep_seenEiNS_8DepValueE.exit: ; preds = %16, %._crit_edge.i.i
  %41 = phi ptr [ %18, %16 ], [ %.pre.i, %._crit_edge.i.i ]
  %42 = getelementptr inbounds i8, ptr %18, i64 8
  %43 = load ptr, ptr %42, align 8
  %44 = sext i32 %17 to i64
  %45 = getelementptr inbounds i32, ptr %43, i64 %44
  %46 = load i32, ptr %45, align 4
  %47 = shl nuw i32 1, %1
  %48 = or i32 %46, %47
  %49 = getelementptr inbounds i8, ptr %41, i64 8
  %50 = load ptr, ptr %49, align 8
  %51 = getelementptr inbounds i32, ptr %50, i64 %44
  store i32 %48, ptr %51, align 4
  %52 = and i32 %46, %47
  %.not = icmp eq i32 %52, 0
  br i1 %.not, label %53, label %74

53:                                               ; preds = %_ZN12Dependencies13note_dep_seenEiNS_8DepValueE.exit
  %54 = load i32, ptr %7, align 8
  %55 = getelementptr inbounds i8, ptr %7, i64 4
  %56 = load i32, ptr %55, align 4
  %57 = icmp eq i32 %54, %56
  br i1 %57, label %58, label %_ZN26GrowableArrayWithAllocatorIN12Dependencies8DepValueE13GrowableArrayIS1_EE6appendERKS1_.exit

58:                                               ; preds = %53
  %59 = add nsw i32 %54, 1
  %60 = icmp sgt i32 %54, -1
  %61 = xor i32 %54, -2147483648
  %62 = and i32 %61, %59
  %63 = icmp eq i32 %62, 0
  %64 = and i1 %60, %63
  %65 = tail call range(i32 0, 33) i32 @llvm.ctlz.i32(i32 %59, i1 true)
  %66 = sub nuw nsw i32 32, %65
  %67 = shl nuw i32 1, %66
  %.0.i.i.i.i = select i1 %64, i32 %59, i32 %67
  tail call void @_ZN26GrowableArrayWithAllocatorIN12Dependencies8DepValueE13GrowableArrayIS1_EE9expand_toEi(ptr noundef nonnull align 8 dereferenceable(16) %7, i32 noundef %.0.i.i.i.i)
  %.pre.i3 = load i32, ptr %7, align 8
  br label %_ZN26GrowableArrayWithAllocatorIN12Dependencies8DepValueE13GrowableArrayIS1_EE6appendERKS1_.exit

_ZN26GrowableArrayWithAllocatorIN12Dependencies8DepValueE13GrowableArrayIS1_EE6appendERKS1_.exit: ; preds = %53, %58
  %68 = phi i32 [ %.pre.i3, %58 ], [ %54, %53 ]
  %69 = add nsw i32 %68, 1
  store i32 %69, ptr %7, align 8
  %70 = getelementptr inbounds i8, ptr %7, i64 8
  %71 = load ptr, ptr %70, align 8
  %72 = sext i32 %68 to i64
  %73 = getelementptr inbounds %"class.Dependencies::DepValue", ptr %71, i64 %72
  store i32 %2, ptr %73, align 4
  br label %74

74:                                               ; preds = %_ZN12Dependencies13note_dep_seenEiNS_8DepValueE.exit, %_ZN26GrowableArrayWithAllocatorIN12Dependencies8DepValueE13GrowableArrayIS1_EE6appendERKS1_.exit
  ret void
}